; Function Attrs: nounwind uwtable
define hidden range(i32 0, 2) i32 @SXNET_add_id_asc(ptr noundef %psx, ptr noundef %zone, ptr noundef %user, i32 noundef %userlen) local_unnamed_addr #0 {
entry:
  %call = tail call ptr @s2i_ASN1_INTEGER(ptr noundef null, ptr noundef %zone) #4
  %tobool.not = icmp eq ptr %call, null
  br i1 %tobool.not, label %if.then, label %if.end

if.then:                                          ; preds = %entry
  tail call void @ERR_put_error(i32 noundef 20, i32 noundef 0, i32 noundef 108, ptr noundef nonnull @.str.2, i32 noundef 161) #4
  br label %return

if.end:                                           ; preds = %entry
  %call1 = tail call i32 @SXNET_add_id_INTEGER(ptr noundef %psx, ptr noundef nonnull %call, ptr noundef %user, i32 noundef %userlen)
  br label %return

return:                                           ; preds = %if.end, %if.then
  %retval.0 = phi i32 [ %call1, %if.end ], [ 0, %if.then ]
  ret i32 %retval.0
}